target datalayout = "e-m:e-p270:32:32-p271:32:32-p272:64:64-i64:64-i128:128-f80:128-n8:16:32:64-S128"
target triple = "x86_64-pc-linux-gnu"

%struct._php_basic_globals = type { ptr, %struct._zend_array, ptr, ptr, i8, ptr, [256 x i8], i64, %struct._zend_fcall_info, %struct._zend_fcall_info_cache, ptr, %struct._zval_struct, %struct._zval_struct, i64, i64, i64, i64, ptr, ptr, %struct._php_stream_statbuf, %struct._php_stream_statbuf, ptr, i32, %struct.anon.7, %struct.anon.8, %struct.url_adapt_state_ex_t, %struct._zend_array, %struct.url_adapt_state_ex_t, %struct._zend_array, ptr, i32, i64 }
%struct._zend_fcall_info = type { i64, %struct._zval_struct, ptr, ptr, ptr, i32, ptr }
%struct._zend_fcall_info_cache = type { ptr, ptr, ptr, ptr, ptr }
%struct._zval_struct = type { %union._zend_value, %union.anon.3, %union.anon.6 }
%union._zend_value = type { i64 }
%union.anon.3 = type { i32 }
%union.anon.6 = type { i32 }
%struct._php_stream_statbuf = type { %struct.stat }
%struct.stat = type { i64, i64, i64, i32, i32, i32, i32, i64, i64, i64, i64, %struct.timespec, %struct.timespec, %struct.timespec, [3 x i64] }
%struct.timespec = type { i64, i64 }
%struct.anon.7 = type { ptr, i32 }
%struct.anon.8 = type { ptr, i32 }
%struct.url_adapt_state_ex_t = type { %struct.smart_str, %struct.smart_str, %struct.smart_str, %struct.smart_str, %struct.smart_str, %struct.smart_str, %struct.smart_str, i32, ptr, i32, i32, %struct.smart_str, i32, i32, ptr }
%struct.smart_str = type { ptr, i64 }
%struct._zend_array = type { %struct._zend_refcounted_h, %union.anon.0, i32, %union.anon.1, i32, i32, i32, i32, i64, ptr }
%struct._zend_refcounted_h = type { i32, %union.anon }
%union.anon = type { i32 }
%union.anon.0 = type { i32 }
%union.anon.1 = type { ptr }

@basic_globals = external global %struct._php_basic_globals, align 8

; Function Attrs: nounwind uwtable
define hidden i32 @zm_deactivate_filestat(i32 noundef %0, i32 noundef %1) #0 {
  %3 = alloca ptr, align 8
  %4 = alloca ptr, align 8
  %5 = alloca i32, align 4
  %6 = alloca i32, align 4
  %7 = alloca i32, align 4
  %8 = alloca i32, align 4
  %9 = alloca ptr, align 8
  %10 = alloca ptr, align 8
  %11 = alloca i32, align 4
  %12 = alloca i32, align 4
  store i32 %0, ptr %11, align 4
  store i32 %1, ptr %12, align 4
  %13 = load ptr, ptr getelementptr inbounds (%struct._php_basic_globals, ptr @basic_globals, i32 0, i32 17), align 8
  %14 = icmp ne ptr %13, null
  br i1 %14, label %15, label %48

15:                                               ; preds = %2
  %16 = load ptr, ptr getelementptr inbounds (%struct._php_basic_globals, ptr @basic_globals, i32 0, i32 17), align 8
  store ptr %16, ptr %9, align 8
  %17 = load ptr, ptr %9, align 8
  %18 = getelementptr inbounds %struct._zend_refcounted_h, ptr %17, i32 0, i32 1
  %19 = load i32, ptr %18, align 4
  store i32 %19, ptr %7, align 4
  %20 = load i32, ptr %7, align 4
  %21 = and i32 %20, 1008
  %22 = and i32 %21, 64
  %23 = icmp ne i32 %22, 0
  br i1 %23, label %47, label %24

24:                                               ; preds = %15
  %25 = load ptr, ptr %9, align 8
  store ptr %25, ptr %4, align 8
  %26 = load ptr, ptr %4, align 8
  %27 = load i32, ptr %26, align 4
  %28 = icmp ugt i32 %27, 0
  call void @llvm.assume(i1 %28)
  %29 = load ptr, ptr %4, align 8
  %30 = load i32, ptr %29, align 4
  %31 = add i32 %30, -1
  store i32 %31, ptr %29, align 4
  %32 = icmp eq i32 %31, 0
  br i1 %32, label %33, label %46

33:                                               ; preds = %24
  %34 = load ptr, ptr %9, align 8
  %35 = getelementptr inbounds %struct._zend_refcounted_h, ptr %34, i32 0, i32 1
  %36 = load i32, ptr %35, align 4
  store i32 %36, ptr %8, align 4
  %37 = load i32, ptr %8, align 4
  %38 = and i32 %37, 1008
  %39 = and i32 %38, 128
  %40 = icmp ne i32 %39, 0
  br i1 %40, label %41, label %43

41:                                               ; preds = %33
  %42 = load ptr, ptr %9, align 8
  call void @free(ptr noundef %42) #10
  br label %45

43:                                               ; preds = %33
  %44 = load ptr, ptr %9, align 8
  call void @_efree(ptr noundef %44) #10
  br label %45

45:                                               ; preds = %43, %41
  br label %46

46:                                               ; preds = %45, %24
  br label %47

47:                                               ; preds = %46, %15
  store ptr null, ptr getelementptr inbounds (%struct._php_basic_globals, ptr @basic_globals, i32 0, i32 17), align 8
  br label %48

48:                                               ; preds = %47, %2
  %49 = load ptr, ptr getelementptr inbounds (%struct._php_basic_globals, ptr @basic_globals, i32 0, i32 18), align 8
  %50 = icmp ne ptr %49, null
  br i1 %50, label %51, label %84

51:                                               ; preds = %48
  %52 = load ptr, ptr getelementptr inbounds (%struct._php_basic_globals, ptr @basic_globals, i32 0, i32 18), align 8
  store ptr %52, ptr %10, align 8
  %53 = load ptr, ptr %10, align 8
  %54 = getelementptr inbounds %struct._zend_refcounted_h, ptr %53, i32 0, i32 1
  %55 = load i32, ptr %54, align 4
  store i32 %55, ptr %5, align 4
  %56 = load i32, ptr %5, align 4
  %57 = and i32 %56, 1008
  %58 = and i32 %57, 64
  %59 = icmp ne i32 %58, 0
  br i1 %59, label %83, label %60

60:                                               ; preds = %51
  %61 = load ptr, ptr %10, align 8
  store ptr %61, ptr %3, align 8
  %62 = load ptr, ptr %3, align 8
  %63 = load i32, ptr %62, align 4
  %64 = icmp ugt i32 %63, 0
  call void @llvm.assume(i1 %64)
  %65 = load ptr, ptr %3, align 8
  %66 = load i32, ptr %65, align 4
  %67 = add i32 %66, -1
  store i32 %67, ptr %65, align 4
  %68 = icmp eq i32 %67, 0
  br i1 %68, label %69, label %82

69:                                               ; preds = %60
  %70 = load ptr, ptr %10, align 8
  %71 = getelementptr inbounds %struct._zend_refcounted_h, ptr %70, i32 0, i32 1
  %72 = load i32, ptr %71, align 4
  store i32 %72, ptr %6, align 4
  %73 = load i32, ptr %6, align 4
  %74 = and i32 %73, 1008
  %75 = and i32 %74, 128
  %76 = icmp ne i32 %75, 0
  br i1 %76, label %77, label %79

77:                                               ; preds = %69
  %78 = load ptr, ptr %10, align 8
  call void @free(ptr noundef %78) #10
  br label %81

79:                                               ; preds = %69
  %80 = load ptr, ptr %10, align 8
  call void @_efree(ptr noundef %80) #10
  br label %81

81:                                               ; preds = %79, %77
  br label %82

82:                                               ; preds = %81, %60
  br label %83

83:                                               ; preds = %82, %51
  store ptr null, ptr getelementptr inbounds (%struct._php_basic_globals, ptr @basic_globals, i32 0, i32 18), align 8
  br label %84

84:                                               ; preds = %83, %48
  ret i32 0
}