; Function Attrs: nounwind uwtable
define hidden noundef i32 @zm_deactivate_filestat(i32 noundef %0, i32 noundef %1) local_unnamed_addr #1 {
  %3 = load ptr, ptr getelementptr inbounds (%struct._php_basic_globals, ptr @basic_globals, i64 0, i32 17), align 8
  %.not = icmp eq ptr %3, null
  br i1 %.not, label %18, label %4

4:                                                ; preds = %2
  %5 = getelementptr inbounds i8, ptr %3, i64 4
  %6 = load i32, ptr %5, align 4
  %7 = and i32 %6, 64
  %.not18 = icmp eq i32 %7, 0
  br i1 %.not18, label %8, label %17

8:                                                ; preds = %4
  %9 = load i32, ptr %3, align 4
  %10 = icmp ne i32 %9, 0
  tail call void @llvm.assume(i1 %10)
  %11 = add i32 %9, -1
  store i32 %11, ptr %3, align 4
  %12 = icmp eq i32 %11, 0
  br i1 %12, label %13, label %17

13:                                               ; preds = %8
  %14 = and i32 %6, 128
  %.not19 = icmp eq i32 %14, 0
  br i1 %.not19, label %16, label %15

15:                                               ; preds = %13
  tail call void @free(ptr noundef nonnull %3) #16
  br label %17

16:                                               ; preds = %13
  tail call void @_efree(ptr noundef nonnull %3) #16
  br label %17

17:                                               ; preds = %8, %16, %15, %4
  store ptr null, ptr getelementptr inbounds (%struct._php_basic_globals, ptr @basic_globals, i64 0, i32 17), align 8
  br label %18

18:                                               ; preds = %17, %2
  %19 = load ptr, ptr getelementptr inbounds (%struct._php_basic_globals, ptr @basic_globals, i64 0, i32 18), align 8
  %.not20 = icmp eq ptr %19, null
  br i1 %.not20, label %34, label %20

20:                                               ; preds = %18
  %21 = getelementptr inbounds i8, ptr %19, i64 4
  %22 = load i32, ptr %21, align 4
  %23 = and i32 %22, 64
  %.not21 = icmp eq i32 %23, 0
  br i1 %.not21, label %24, label %33

24:                                               ; preds = %20
  %25 = load i32, ptr %19, align 4
  %26 = icmp ne i32 %25, 0
  tail call void @llvm.assume(i1 %26)
  %27 = add i32 %25, -1
  store i32 %27, ptr %19, align 4
  %28 = icmp eq i32 %27, 0
  br i1 %28, label %29, label %33

29:                                               ; preds = %24
  %30 = and i32 %22, 128
  %.not22 = icmp eq i32 %30, 0
  br i1 %.not22, label %32, label %31

31:                                               ; preds = %29
  tail call void @free(ptr noundef nonnull %19) #16
  br label %33

32:                                               ; preds = %29
  tail call void @_efree(ptr noundef nonnull %19) #16
  br label %33

33:                                               ; preds = %24, %32, %31, %20
  store ptr null, ptr getelementptr inbounds (%struct._php_basic_globals, ptr @basic_globals, i64 0, i32 18), align 8
  br label %34

34:                                               ; preds = %33, %18
  ret i32 0
}